target datalayout = "e-m:e-p270:32:32-p271:32:32-p272:64:64-i64:64-i128:128-f80:128-n8:16:32:64-S128"
target triple = "x86_64-pc-linux-gnu"

; Function Attrs: nounwind uwtable
define double @dmatrix_difference(ptr noundef %0, ptr noundef %1, i32 noundef %2, i32 noundef %3, i32 noundef %4) #0 {
  %6 = alloca ptr, align 8
  %7 = alloca ptr, align 8
  %8 = alloca i32, align 4
  %9 = alloca i32, align 4
  %10 = alloca i32, align 4
  %11 = alloca i32, align 4
  %12 = alloca i32, align 4
  %13 = alloca i32, align 4
  %14 = alloca double, align 8
  %15 = alloca ptr, align 8
  %16 = alloca ptr, align 8
  store ptr %0, ptr %6, align 8, !tbaa !14
  store ptr %1, ptr %7, align 8, !tbaa !14
  store i32 %2, ptr %8, align 4, !tbaa !8
  store i32 %3, ptr %9, align 4, !tbaa !8
  store i32 %4, ptr %10, align 4, !tbaa !8
  call void @llvm.lifetime.start.p0(i64 4, ptr %11) #5
  store i32 0, ptr %11, align 4, !tbaa !8
  call void @llvm.lifetime.start.p0(i64 4, ptr %12) #5
  store i32 0, ptr %12, align 4, !tbaa !8
  call void @llvm.lifetime.start.p0(i64 4, ptr %13) #5
  store i32 1, ptr %13, align 4, !tbaa !8
  call void @llvm.lifetime.start.p0(i64 8, ptr %14) #5
  store double 0.000000e+00, ptr %14, align 8, !tbaa !16
  call void @llvm.lifetime.start.p0(i64 8, ptr %15) #5
  %17 = load ptr, ptr %6, align 8, !tbaa !14
  store ptr %17, ptr %15, align 8, !tbaa !14
  call void @llvm.lifetime.start.p0(i64 8, ptr %16) #5
  %18 = load ptr, ptr %7, align 8, !tbaa !14
  store ptr %18, ptr %16, align 8, !tbaa !14
  store i32 0, ptr %11, align 4, !tbaa !8
  br label %19

19:                                               ; preds = %56, %5
  %20 = load i32, ptr %11, align 4, !tbaa !8
  %21 = load i32, ptr %9, align 4, !tbaa !8
  %22 = icmp slt i32 %20, %21
  br i1 %22, label %23, label %59

23:                                               ; preds = %19
  store i32 0, ptr %12, align 4, !tbaa !8
  br label %24

24:                                               ; preds = %40, %23
  %25 = load i32, ptr %12, align 4, !tbaa !8
  %26 = load i32, ptr %8, align 4, !tbaa !8
  %27 = icmp slt i32 %25, %26
  br i1 %27, label %28, label %43

28:                                               ; preds = %24
  %29 = load ptr, ptr %16, align 8, !tbaa !14
  %30 = load i32, ptr %12, align 4, !tbaa !8
  %31 = sext i32 %30 to i64
  %32 = getelementptr inbounds double, ptr %29, i64 %31
  %33 = load double, ptr %32, align 8, !tbaa !16
  %34 = load ptr, ptr %15, align 8, !tbaa !14
  %35 = load i32, ptr %12, align 4, !tbaa !8
  %36 = sext i32 %35 to i64
  %37 = getelementptr inbounds double, ptr %34, i64 %36
  %38 = load double, ptr %37, align 8, !tbaa !16
  %39 = fsub double %38, %33
  store double %39, ptr %37, align 8, !tbaa !16
  br label %40

40:                                               ; preds = %28
  %41 = load i32, ptr %12, align 4, !tbaa !8
  %42 = add nsw i32 %41, 1
  store i32 %42, ptr %12, align 4, !tbaa !8
  br label %24, !llvm.loop !21

43:                                               ; preds = %24
  %44 = load ptr, ptr %15, align 8, !tbaa !14
  %45 = call double @dnrm2_(ptr noundef %8, ptr noundef %44, ptr noundef %13)
  %46 = load double, ptr %14, align 8, !tbaa !16
  %47 = fadd double %46, %45
  store double %47, ptr %14, align 8, !tbaa !16
  %48 = load i32, ptr %10, align 4, !tbaa !8
  %49 = load ptr, ptr %15, align 8, !tbaa !14
  %50 = sext i32 %48 to i64
  %51 = getelementptr inbounds double, ptr %49, i64 %50
  store ptr %51, ptr %15, align 8, !tbaa !14
  %52 = load i32, ptr %10, align 4, !tbaa !8
  %53 = load ptr, ptr %16, align 8, !tbaa !14
  %54 = sext i32 %52 to i64
  %55 = getelementptr inbounds double, ptr %53, i64 %54
  store ptr %55, ptr %16, align 8, !tbaa !14
  br label %56

56:                                               ; preds = %43
  %57 = load i32, ptr %11, align 4, !tbaa !8
  %58 = add nsw i32 %57, 1
  store i32 %58, ptr %11, align 4, !tbaa !8
  br label %19, !llvm.loop !22

59:                                               ; preds = %19
  %60 = load double, ptr %14, align 8, !tbaa !16
  %61 = load i32, ptr %9, align 4, !tbaa !8
  %62 = sitofp i32 %61 to double
  %63 = fdiv double %60, %62
  call void @llvm.lifetime.end.p0(i64 8, ptr %16) #5
  call void @llvm.lifetime.end.p0(i64 8, ptr %15) #5
  call void @llvm.lifetime.end.p0(i64 8, ptr %14) #5
  call void @llvm.lifetime.end.p0(i64 4, ptr %13) #5
  call void @llvm.lifetime.end.p0(i64 4, ptr %12) #5
  call void @llvm.lifetime.end.p0(i64 4, ptr %11) #5
  ret double %63
}