; Function Attrs: nounwind uwtable
define double @dmatrix_difference(ptr noundef %0, ptr noundef readonly captures(none) %1, i32 noundef %2, i32 noundef %3, i32 noundef %4) local_unnamed_addr #0 {
  %6 = alloca i32, align 4
  %7 = alloca i32, align 4
  store i32 %2, ptr %6, align 4, !tbaa !12
  call void @llvm.lifetime.start.p0(i64 4, ptr nonnull %7) #6
  store i32 1, ptr %7, align 4, !tbaa !12
  %8 = icmp sgt i32 %3, 0
  br i1 %8, label %.preheader.lr.ph, label %._crit_edge28

.preheader.lr.ph:                                 ; preds = %5
  %9 = sext i32 %4 to i64
  br label %.preheader

.preheader:                                       ; preds = %.preheader.lr.ph, %._crit_edge
  %.027 = phi ptr [ %1, %.preheader.lr.ph ], [ %20, %._crit_edge ]
  %.01826 = phi ptr [ %0, %.preheader.lr.ph ], [ %19, %._crit_edge ]
  %.01925 = phi double [ 0.000000e+00, %.preheader.lr.ph ], [ %18, %._crit_edge ]
  %.02124 = phi i32 [ 0, %.preheader.lr.ph ], [ %21, %._crit_edge ]
  %10 = load i32, ptr %6, align 4, !tbaa !12
  %11 = icmp sgt i32 %10, 0
  br i1 %11, label %.lr.ph.preheader, label %._crit_edge

.lr.ph.preheader:                                 ; preds = %.preheader
  %wide.trip.count = zext nneg i32 %10 to i64
  br label %.lr.ph

.lr.ph:                                           ; preds = %.lr.ph.preheader, %.lr.ph
  %indvars.iv = phi i64 [ 0, %.lr.ph.preheader ], [ %indvars.iv.next, %.lr.ph ]
  %12 = getelementptr inbounds nuw double, ptr %.027, i64 %indvars.iv
  %13 = load double, ptr %12, align 8, !tbaa !9
  %14 = getelementptr inbounds nuw double, ptr %.01826, i64 %indvars.iv
  %15 = load double, ptr %14, align 8, !tbaa !9
  %16 = fsub double %15, %13
  store double %16, ptr %14, align 8, !tbaa !9
  %indvars.iv.next = add nuw nsw i64 %indvars.iv, 1
  %exitcond.not = icmp eq i64 %indvars.iv.next, %wide.trip.count
  br i1 %exitcond.not, label %._crit_edge, label %.lr.ph, !llvm.loop !16

._crit_edge:                                      ; preds = %.lr.ph, %.preheader
  %17 = call double @dnrm2_(ptr noundef nonnull %6, ptr noundef %.01826, ptr noundef nonnull %7) #6
  %18 = fadd double %.01925, %17
  %19 = getelementptr inbounds double, ptr %.01826, i64 %9
  %20 = getelementptr inbounds double, ptr %.027, i64 %9
  %21 = add nuw nsw i32 %.02124, 1
  %exitcond30.not = icmp eq i32 %21, %3
  br i1 %exitcond30.not, label %._crit_edge28, label %.preheader, !llvm.loop !17

._crit_edge28:                                    ; preds = %._crit_edge, %5
  %.019.lcssa = phi double [ 0.000000e+00, %5 ], [ %18, %._crit_edge ]
  %22 = sitofp i32 %3 to double
  %23 = fdiv double %.019.lcssa, %22
  call void @llvm.lifetime.end.p0(i64 4, ptr nonnull %7) #6
  ret double %23
}